; ModuleID = '38/1324.c'
source_filename = "38/1324.c"
target datalayout = "e-m:e-p270:32:32-p271:32:32-p272:64:64-i64:64-f80:128-n8:16:32:64-S128"
target triple = "x86_64-pc-linux-gnu"

@.str = private unnamed_addr constant [4 x i8] c"\0A%d\00", align 1
@.str.1 = private unnamed_addr constant [5 x i8] c"\0A%d\0A\00", align 1
@.str.2 = private unnamed_addr constant [4 x i8] c"%lf\00", align 1
@.str.3 = private unnamed_addr constant [7 x i8] c"%.5lf\0A\00", align 1

; Function Attrs: noinline nounwind uwtable
define dso_local i32 @main() #0 {
  %1 = alloca i32, align 4
  %2 = alloca i32, align 4
  %3 = alloca i32, align 4
  %4 = alloca double, align 8
  %5 = alloca [100 x double], align 16
  %6 = alloca double, align 8
  %7 = alloca double, align 8
  %8 = alloca double, align 8
  %9 = alloca double, align 8
  %10 = alloca i32, align 4
  %11 = alloca i32, align 4
  %12 = alloca double, align 8
  store i32 0, i32* %1, align 4
  %13 = call i32 (i8*, ...) @__isoc99_scanf(i8* getelementptr inbounds ([4 x i8], [4 x i8]* @.str, i64 0, i64 0), i32* %2)
  store i32 0, i32* %10, align 4
  br label %14

14:                                               ; preds = %76, %0
  %15 = load i32, i32* %10, align 4
  %16 = load i32, i32* %2, align 4
  %17 = icmp slt i32 %15, %16
  br i1 %17, label %18, label %79

18:                                               ; preds = %14
  store double 0.000000e+00, double* %4, align 8
  store double 0.000000e+00, double* %12, align 8
  %19 = call i32 (i8*, ...) @__isoc99_scanf(i8* getelementptr inbounds ([5 x i8], [5 x i8]* @.str.1, i64 0, i64 0), i32* %3)
  store i32 0, i32* %11, align 4
  br label %20

20:                                               ; preds = %35, %18
  %21 = load i32, i32* %11, align 4
  %22 = load i32, i32* %3, align 4
  %23 = icmp slt i32 %21, %22
  br i1 %23, label %24, label %38

24:                                               ; preds = %20
  %25 = load i32, i32* %11, align 4
  %26 = sext i32 %25 to i64
  %27 = getelementptr inbounds [100 x double], [100 x double]* %5, i64 0, i64 %26
  %28 = call i32 (i8*, ...) @__isoc99_scanf(i8* getelementptr inbounds ([4 x i8], [4 x i8]* @.str.2, i64 0, i64 0), double* %27)
  %29 = load i32, i32* %11, align 4
  %30 = sext i32 %29 to i64
  %31 = getelementptr inbounds [100 x double], [100 x double]* %5, i64 0, i64 %30
  %32 = load double, double* %31, align 8
  %33 = load double, double* %4, align 8
  %34 = fadd double %33, %32
  store double %34, double* %4, align 8
  br label %35

35:                                               ; preds = %24
  %36 = load i32, i32* %11, align 4
  %37 = add nsw i32 %36, 1
  store i32 %37, i32* %11, align 4
  br label %20

38:                                               ; preds = %20
  %39 = load double, double* %4, align 8
  %40 = load i32, i32* %3, align 4
  %41 = sitofp i32 %40 to double
  %42 = fdiv double %39, %41
  store double %42, double* %6, align 8
  store i32 0, i32* %11, align 4
  br label %43

43:                                               ; preds = %64, %38
  %44 = load i32, i32* %11, align 4
  %45 = load i32, i32* %3, align 4
  %46 = icmp slt i32 %44, %45
  br i1 %46, label %47, label %67

47:                                               ; preds = %43
  %48 = load i32, i32* %11, align 4
  %49 = sext i32 %48 to i64
  %50 = getelementptr inbounds [100 x double], [100 x double]* %5, i64 0, i64 %49
  %51 = load double, double* %50, align 8
  %52 = load double, double* %6, align 8
  %53 = fsub double %51, %52
  %54 = load i32, i32* %11, align 4
  %55 = sext i32 %54 to i64
  %56 = getelementptr inbounds [100 x double], [100 x double]* %5, i64 0, i64 %55
  %57 = load double, double* %56, align 8
  %58 = load double, double* %6, align 8
  %59 = fsub double %57, %58
  %60 = fmul double %53, %59
  store double %60, double* %7, align 8
  %61 = load double, double* %7, align 8
  %62 = load double, double* %12, align 8
  %63 = fadd double %62, %61
  store double %63, double* %12, align 8
  br label %64

64:                                               ; preds = %47
  %65 = load i32, i32* %11, align 4
  %66 = add nsw i32 %65, 1
  store i32 %66, i32* %11, align 4
  br label %43

67:                                               ; preds = %43
  %68 = load double, double* %12, align 8
  %69 = load i32, i32* %3, align 4
  %70 = sitofp i32 %69 to double
  %71 = fdiv double %68, %70
  store double %71, double* %8, align 8
  %72 = load double, double* %8, align 8
  %73 = call double @sqrt(double %72) #3
  store double %73, double* %9, align 8
  %74 = load double, double* %9, align 8
  %75 = call i32 (i8*, ...) @printf(i8* getelementptr inbounds ([7 x i8], [7 x i8]* @.str.3, i64 0, i64 0), double %74)
  br label %76

76:                                               ; preds = %67
  %77 = load i32, i32* %10, align 4
  %78 = add nsw i32 %77, 1
  store i32 %78, i32* %10, align 4
  br label %14

79:                                               ; preds = %14
  ret i32 0
}

declare dso_local i32 @__isoc99_scanf(i8*, ...) #1

; Function Attrs: nounwind
declare dso_local double @sqrt(double) #2

declare dso_local i32 @printf(i8*, ...) #1


!llvm.module.flags = !{!0}
!llvm.ident = !{!1}

!0 = !{i32 1, !"wchar_size", i32 4}
!1 = !{!"clang version 10.0.0-4ubuntu1 "}
